target datalayout = "e-m:e-p270:32:32-p271:32:32-p272:64:64-i64:64-i128:128-f80:128-n8:16:32:64-S128"
target triple = "x86_64-pc-linux-gnu"

%"class.duckdb::vector" = type { %"class.std::vector" }
%"class.std::vector" = type { %"struct.std::_Vector_base" }
%"struct.std::_Vector_base" = type { %"struct.std::_Vector_base<duckdb::LogicalType, std::allocator<duckdb::LogicalType>>::_Vector_impl" }
%"struct.std::_Vector_base<duckdb::LogicalType, std::allocator<duckdb::LogicalType>>::_Vector_impl" = type { %"struct.std::_Vector_base<duckdb::LogicalType, std::allocator<duckdb::LogicalType>>::_Vector_impl_data" }
%"struct.std::_Vector_base<duckdb::LogicalType, std::allocator<duckdb::LogicalType>>::_Vector_impl_data" = type { ptr, ptr, ptr }
%"struct.duckdb::LogicalType" = type { i8, i8, %"class.duckdb::shared_ptr" }
%"class.duckdb::shared_ptr" = type { %"class.std::shared_ptr" }
%"class.std::shared_ptr" = type { %"class.std::__shared_ptr" }
%"class.std::__shared_ptr" = type { ptr, %"class.std::__shared_count" }
%"class.std::__shared_count" = type { ptr }
%"struct.duckdb::FunctionData" = type { ptr }
%"struct.duckdb::ListSortBindData" = type { %"struct.duckdb::FunctionData", i8, i8, %"struct.duckdb::LogicalType", %"struct.duckdb::LogicalType", i8, %"class.duckdb::vector", %"class.duckdb::vector", ptr, %"class.duckdb::RowLayout", %"class.duckdb::vector.70" }
%"class.duckdb::RowLayout" = type { %"class.duckdb::vector", i64, i64, i64, %"class.duckdb::vector.64", i8, i64 }
%"class.duckdb::vector.64" = type { %"class.std::vector.65" }
%"class.std::vector.65" = type { %"struct.std::_Vector_base.66" }
%"struct.std::_Vector_base.66" = type { %"struct.std::_Vector_base<unsigned long, std::allocator<unsigned long>>::_Vector_impl" }
%"struct.std::_Vector_base<unsigned long, std::allocator<unsigned long>>::_Vector_impl" = type { %"struct.std::_Vector_base<unsigned long, std::allocator<unsigned long>>::_Vector_impl_data" }
%"struct.std::_Vector_base<unsigned long, std::allocator<unsigned long>>::_Vector_impl_data" = type { ptr, ptr, ptr }
%"class.duckdb::vector.70" = type { %"class.std::vector.71" }
%"class.std::vector.71" = type { %"struct.std::_Vector_base.72" }
%"struct.std::_Vector_base.72" = type { %"struct.std::_Vector_base<duckdb::BoundOrderByNode, std::allocator<duckdb::BoundOrderByNode>>::_Vector_impl" }
%"struct.std::_Vector_base<duckdb::BoundOrderByNode, std::allocator<duckdb::BoundOrderByNode>>::_Vector_impl" = type { %"struct.std::_Vector_base<duckdb::BoundOrderByNode, std::allocator<duckdb::BoundOrderByNode>>::_Vector_impl_data" }
%"struct.std::_Vector_base<duckdb::BoundOrderByNode, std::allocator<duckdb::BoundOrderByNode>>::_Vector_impl_data" = type { ptr, ptr, ptr }

; Function Attrs: mustprogress nounwind uwtable
define linkonce_odr void @_ZN6duckdb16DynamicCastCheckINS_16ListSortBindDataENS_12FunctionDataEEEvPKT0_(ptr noundef %0) #6 comdat {
  %2 = alloca ptr, align 8
  store ptr %0, ptr %2, align 8, !tbaa !259
  ret void
}

; Function Attrs: mustprogress nounwind uwtable
define linkonce_odr noundef nonnull align 8 dereferenceable(240) ptr @_ZNK6duckdb12FunctionData4CastINS_16ListSortBindDataEEERKT_v(ptr noundef nonnull align 8 dereferenceable(8) %0) #6 comdat align 2 {
  %2 = alloca ptr, align 8
  store ptr %0, ptr %2, align 8, !tbaa !259
  %3 = load ptr, ptr %2, align 8
  call void @_ZN6duckdb16DynamicCastCheckINS_16ListSortBindDataENS_12FunctionDataEEEvPKT0_(ptr noundef %3)
  ret ptr %3
}

; Function Attrs: mustprogress uwtable
define noundef zeroext i1 @_ZNK6duckdb16ListSortBindData6EqualsERKNS_12FunctionDataE(ptr noundef nonnull align 8 dereferenceable(240) %0, ptr noundef nonnull align 8 dereferenceable(8) %1) unnamed_addr #4 align 2 {
  %3 = alloca ptr, align 8
  %4 = alloca ptr, align 8
  %5 = alloca ptr, align 8
  store ptr %0, ptr %3, align 8, !tbaa !291
  store ptr %1, ptr %4, align 8, !tbaa !259
  %6 = load ptr, ptr %3, align 8
  call void @llvm.lifetime.start.p0(i64 8, ptr %5) #3
  %7 = load ptr, ptr %4, align 8, !tbaa !259
  %8 = call noundef nonnull align 8 dereferenceable(240) ptr @_ZNK6duckdb12FunctionData4CastINS_16ListSortBindDataEEERKT_v(ptr noundef nonnull align 8 dereferenceable(8) %7)
  store ptr %8, ptr %5, align 8, !tbaa !291
  %9 = getelementptr inbounds nuw %"struct.duckdb::ListSortBindData", ptr %6, i32 0, i32 1
  %10 = load i8, ptr %9, align 8, !tbaa !293
  %11 = load ptr, ptr %5, align 8, !tbaa !291
  %12 = getelementptr inbounds nuw %"struct.duckdb::ListSortBindData", ptr %11, i32 0, i32 1
  %13 = load i8, ptr %12, align 8, !tbaa !293
  %14 = icmp eq i8 %10, %13
  br i1 %14, label %15, label %33

15:                                               ; preds = %2
  %16 = getelementptr inbounds nuw %"struct.duckdb::ListSortBindData", ptr %6, i32 0, i32 2
  %17 = load i8, ptr %16, align 1, !tbaa !307
  %18 = load ptr, ptr %5, align 8, !tbaa !291
  %19 = getelementptr inbounds nuw %"struct.duckdb::ListSortBindData", ptr %18, i32 0, i32 2
  %20 = load i8, ptr %19, align 1, !tbaa !307
  %21 = icmp eq i8 %17, %20
  br i1 %21, label %22, label %33

22:                                               ; preds = %15
  %23 = getelementptr inbounds nuw %"struct.duckdb::ListSortBindData", ptr %6, i32 0, i32 5
  %24 = load i8, ptr %23, align 8, !tbaa !308, !range !151, !noundef !152
  %25 = trunc i8 %24 to i1
  %26 = zext i1 %25 to i32
  %27 = load ptr, ptr %5, align 8, !tbaa !291
  %28 = getelementptr inbounds nuw %"struct.duckdb::ListSortBindData", ptr %27, i32 0, i32 5
  %29 = load i8, ptr %28, align 8, !tbaa !308, !range !151, !noundef !152
  %30 = trunc i8 %29 to i1
  %31 = zext i1 %30 to i32
  %32 = icmp eq i32 %26, %31
  br label %33

33:                                               ; preds = %22, %15, %2
  %34 = phi i1 [ false, %15 ], [ false, %2 ], [ %32, %22 ]
  call void @llvm.lifetime.end.p0(i64 8, ptr %5) #3
  ret i1 %34
}