; Function Attrs: mustprogress nofree norecurse nosync nounwind willreturn memory(argmem: read) uwtable
define noundef zeroext i1 @_ZNK6duckdb16ListSortBindData6EqualsERKNS_12FunctionDataE(ptr noundef nonnull readonly align 8 captures(none) dereferenceable(240) %0, ptr noundef nonnull readonly align 8 captures(none) dereferenceable(8) %1) unnamed_addr #9 align 2 {
  %3 = getelementptr inbounds nuw i8, ptr %0, i64 8
  %4 = load i8, ptr %3, align 8, !tbaa !755
  %5 = getelementptr inbounds nuw i8, ptr %1, i64 8
  %6 = load i8, ptr %5, align 8, !tbaa !755
  %7 = icmp eq i8 %4, %6
  br i1 %7, label %8, label %20

8:                                                ; preds = %2
  %9 = getelementptr inbounds nuw i8, ptr %0, i64 9
  %10 = load i8, ptr %9, align 1, !tbaa !772
  %11 = getelementptr inbounds nuw i8, ptr %1, i64 9
  %12 = load i8, ptr %11, align 1, !tbaa !772
  %13 = icmp eq i8 %10, %12
  br i1 %13, label %14, label %20

14:                                               ; preds = %8
  %15 = getelementptr inbounds nuw i8, ptr %0, i64 64
  %16 = load i8, ptr %15, align 8, !tbaa !773, !range !710, !noundef !711
  %17 = getelementptr inbounds nuw i8, ptr %1, i64 64
  %18 = load i8, ptr %17, align 8, !tbaa !773, !range !710, !noundef !711
  %19 = icmp eq i8 %16, %18
  br label %20

20:                                               ; preds = %14, %8, %2
  %21 = phi i1 [ false, %8 ], [ false, %2 ], [ %19, %14 ]
  ret i1 %21
}